target datalayout = "e-m:e-p270:32:32-p271:32:32-p272:64:64-i64:64-i128:128-f80:128-n8:16:32:64-S128"
target triple = "x86_64-pc-linux-gnu"

@_ZN19OpenColorIO_v2_5dev12_GLOBAL__N_115EC_STYLE_LINEARE = internal constant [7 x i8] c"linear\00", align 1
@_ZN19OpenColorIO_v2_5dev12_GLOBAL__N_119EC_STYLE_LINEAR_REVE = internal constant [10 x i8] c"linearRev\00", align 1
@_ZN19OpenColorIO_v2_5dev12_GLOBAL__N_114EC_STYLE_VIDEOE = internal constant [6 x i8] c"video\00", align 1
@_ZN19OpenColorIO_v2_5dev12_GLOBAL__N_118EC_STYLE_VIDEO_REVE = internal constant [9 x i8] c"videoRev\00", align 1
@_ZN19OpenColorIO_v2_5dev12_GLOBAL__N_120EC_STYLE_LOGARITHMICE = internal constant [4 x i8] c"log\00", align 1
@_ZN19OpenColorIO_v2_5dev12_GLOBAL__N_124EC_STYLE_LOGARITHMIC_REVE = internal constant [7 x i8] c"logRev\00", align 1
@_ZTIN19OpenColorIO_v2_5dev9ExceptionE = external constant ptr
@.str.3 = private unnamed_addr constant [33 x i8] c"Unknown exposure contrast style.\00", align 1

; Function Attrs: mustprogress uwtable
define hidden noundef ptr @_ZN19OpenColorIO_v2_5dev22ExposureContrastOpData20ConvertStyleToStringENS0_5StyleE(i32 noundef %0) #0 align 2 personality ptr @__gxx_personality_v0 {
  %2 = alloca ptr, align 8
  %3 = alloca i32, align 4
  %4 = alloca ptr, align 8
  %5 = alloca i32, align 4
  store i32 %0, ptr %3, align 4, !tbaa !17
  %6 = load i32, ptr %3, align 4, !tbaa !17
  switch i32 %6, label %13 [
    i32 0, label %7
    i32 1, label %8
    i32 2, label %9
    i32 3, label %10
    i32 4, label %11
    i32 5, label %12
  ]

7:                                                ; preds = %1
  store ptr @_ZN19OpenColorIO_v2_5dev12_GLOBAL__N_115EC_STYLE_LINEARE, ptr %2, align 8
  br label %20

8:                                                ; preds = %1
  store ptr @_ZN19OpenColorIO_v2_5dev12_GLOBAL__N_119EC_STYLE_LINEAR_REVE, ptr %2, align 8
  br label %20

9:                                                ; preds = %1
  store ptr @_ZN19OpenColorIO_v2_5dev12_GLOBAL__N_114EC_STYLE_VIDEOE, ptr %2, align 8
  br label %20

10:                                               ; preds = %1
  store ptr @_ZN19OpenColorIO_v2_5dev12_GLOBAL__N_118EC_STYLE_VIDEO_REVE, ptr %2, align 8
  br label %20

11:                                               ; preds = %1
  store ptr @_ZN19OpenColorIO_v2_5dev12_GLOBAL__N_120EC_STYLE_LOGARITHMICE, ptr %2, align 8
  br label %20

12:                                               ; preds = %1
  store ptr @_ZN19OpenColorIO_v2_5dev12_GLOBAL__N_124EC_STYLE_LOGARITHMIC_REVE, ptr %2, align 8
  br label %20

13:                                               ; preds = %1
  %14 = call ptr @__cxa_allocate_exception(i64 16) #17
  invoke void @_ZN19OpenColorIO_v2_5dev9ExceptionC1EPKc(ptr noundef nonnull align 8 dereferenceable(16) %14, ptr noundef @.str.3)
          to label %15 unwind label %16

15:                                               ; preds = %13
  call void @__cxa_throw(ptr %14, ptr @_ZTIN19OpenColorIO_v2_5dev9ExceptionE, ptr @_ZN19OpenColorIO_v2_5dev9ExceptionD1Ev) #18
  unreachable

16:                                               ; preds = %13
  %17 = landingpad { ptr, i32 }
          cleanup
  %18 = extractvalue { ptr, i32 } %17, 0
  store ptr %18, ptr %4, align 8
  %19 = extractvalue { ptr, i32 } %17, 1
  store i32 %19, ptr %5, align 4
  call void @__cxa_free_exception(ptr %14) #17
  br label %22

20:                                               ; preds = %12, %11, %10, %9, %8, %7
  %21 = load ptr, ptr %2, align 8
  ret ptr %21

22:                                               ; preds = %16
  %23 = load ptr, ptr %4, align 8
  %24 = load i32, ptr %5, align 4
  %25 = insertvalue { ptr, i32 } poison, ptr %23, 0
  %26 = insertvalue { ptr, i32 } %25, i32 %24, 1
  resume { ptr, i32 } %26
}